Certificate:
    Data:
        Version: 1 (0x0)
        Serial Number: 1 (0x1)
        Signature Algorithm: md5WithRSAEncryption
        Issuer: O=The Pirates Company, L=Helskinki, ST=Uusimaa, C=FI
        Validity
            Not Before: Apr 18 01:27:49 2013 GMT
            Not After : Apr 18 01:27:49 2014 GMT
        Subject: C=FI, ST=Uusimaa, O=The Pirates Company
        Subject Public Key Info:
            Public Key Algorithm: rsaEncryption
                Public-Key: (1024 bit)
                Modulus:
                    00:a6:14:f1:fa:03:b5:e8:5b:7d:fb:23:c7:4c:57:
                    fb:81:e3:cc:97:13:6c:3b:47:60:1a:23:8d:54:a2:
                    d6:29:69:ad:74:8f:5c:97:b2:f7:a1:4e:2f:05:f4:
                    7c:65:3e:ef:e0:d8:00:89:b7:09:1d:5f:00:77:22:
                    b3:7f:18:6e:09:21:70:1e:43:de:28:f2:17:0f:5a:
                    65:9c:e8:bc:a1:06:e8:e1:fe:af:52:34:4a:5c:ec:
                    35:4c:e8:df:61:0e:ef:25:c6:d8:9e:22:a6:96:b1:
                    e7:c5:04:b6:ef:33:7f:13:23:94:0a:8d:37:a5:6e:
                    ec:f8:25:0d:c3:f5:15:63:1b
                Exponent: 65537 (0x10001)
    Signature Algorithm: md5WithRSAEncryption
        c0:c0:71:8c:38:68:4e:77:af:b4:82:c9:b1:0d:94:b0:e5:df:
        db:d9:03:2f:a1:f9:82:b7:e0:83:25:37:f1:f3:5b:64:13:e4:
        2c:16:c4:54:b6:eb:80:28:37:06:10:07:c5:f6:a8:50:a5:cc:
        39:b2:2c:8b:1d:f2:99:d5:d6:b8:4a:b6:32:94:73:f4:45:e2:
        93:e0:dc:23:ea:7c:b9:ca:50:84:86:44:89:5b:fb:75:4c:48:
        f2:f2:1e:7e:b6:69:40:99:cc:f8:22:2d:fd:f7:33:c8:fd:1b:
        b7:af:e3:c8:02:ed:4e:10:09:99:88:5c:44:b8:5a:ff:4d:6c:
        89:00
-----BEGIN CERTIFICATE-----
MIIB/TCCAWYCAQEwDQYJKoZIhvcNAQEEBQAwUTEcMBoGA1UEChMTVGhlIFBpcmF0
ZXMgQ29tcGFueTESMBAGA1UEBxMJSGVsc2tpbmtpMRAwDgYDVQQIEwdVdXNpbWFh
MQswCQYDVQQGEwJGSTAeFw0xMzA0MTgwMTI3NDlaFw0xNDA0MTgwMTI3NDlaMD0x
CzAJBgNVBAYTAkZJMRAwDgYDVQQIEwdVdXNpbWFhMRwwGgYDVQQKExNUaGUgUGly
YXRlcyBDb21wYW55MIGfMA0GCSqGSIb3DQEBAQUAA4GNADCBiQKBgQCmFPH6A7Xo
W337I8dMV/uB48yXE2w7R2AaI41UotYpaa10j1yXsvehTi8F9HxlPu/g2ACJtwkd
XwB3IrN/GG4JIXAeQ94o8hcPWmWc6LyhBujh/q9SNEpc7DVM6N9hDu8lxtieIqaW
sefFBLbvM38TI5QKjTelbuz4JQ3D9RVjGwIDAQABMA0GCSqGSIb3DQEBBAUAA4GB
AMDAcYw4aE53r7SCybENlLDl39vZAy+h+YK34IMlN/HzW2QT5CwWxFS264AoNwYQ
B8X2qFClzDmyLIsd8pnV1rhKtjKUc/RF4pPg3CPqfLnKUISGRIlb+3VMSPLyHn62
aUCZzPgiLf33M8j9G7ev48gC7U4QCZmIXES4Wv9NbIkA
-----END CERTIFICATE-----
